; Function Attrs: nounwind uwtable
define internal ptr @ga_iter(ptr noundef %0) #0 {
  %2 = tail call ptr @_PyObject_GC_New(ptr noundef nonnull @_Py_GenericAliasIterType) #5
  %3 = icmp eq ptr %2, null
  br i1 %3, label %10, label %4

4:                                                ; preds = %1
  %5 = load i32, ptr %0, align 8, !tbaa !23
  %6 = icmp slt i32 %5, 0
  br i1 %6, label %_Py_NewRef.exit, label %7

7:                                                ; preds = %4
  %8 = add nuw i32 %5, 1
  store i32 %8, ptr %0, align 8, !tbaa !23
  br label %_Py_NewRef.exit

_Py_NewRef.exit:                                  ; preds = %4, %7
  %9 = getelementptr inbounds nuw i8, ptr %2, i64 16
  store ptr %0, ptr %9, align 8, !tbaa !41
  tail call void @PyObject_GC_Track(ptr noundef nonnull %2) #5
  br label %10

10:                                               ; preds = %1, %_Py_NewRef.exit
  ret ptr %2
}